target datalayout = "e-m:e-p270:32:32-p271:32:32-p272:64:64-i64:64-i128:128-f80:128-n8:16:32:64-S128"
target triple = "x86_64-pc-linux-gnu"

%"class.std::_Function_base" = type { %"union.std::_Any_data", ptr }
%"union.std::_Any_data" = type { %"union.std::_Nocopy_types" }
%"union.std::_Nocopy_types" = type { { i64, i64 } }
%"class.LightGBM::ArrowChunkedArray::Iterator.51" = type { ptr, %"class.std::function.52", i64, i64 }
%"class.std::function.52" = type { %"class.std::_Function_base", ptr }

; Function Attrs: mustprogress nounwind uwtable
define linkonce_odr void @_ZNSt14_Function_baseD2Ev(ptr noundef nonnull align 8 dereferenceable(24) %0) unnamed_addr #4 comdat align 2 personality ptr @__gxx_personality_v0 {
  %2 = alloca ptr, align 8
  store ptr %0, ptr %2, align 8, !tbaa !286
  %3 = load ptr, ptr %2, align 8
  %4 = getelementptr inbounds nuw %"class.std::_Function_base", ptr %3, i32 0, i32 1
  %5 = load ptr, ptr %4, align 8, !tbaa !288
  %6 = icmp ne ptr %5, null
  br i1 %6, label %7, label %14

7:                                                ; preds = %1
  %8 = getelementptr inbounds nuw %"class.std::_Function_base", ptr %3, i32 0, i32 1
  %9 = load ptr, ptr %8, align 8, !tbaa !288
  %10 = getelementptr inbounds nuw %"class.std::_Function_base", ptr %3, i32 0, i32 0
  %11 = getelementptr inbounds nuw %"class.std::_Function_base", ptr %3, i32 0, i32 0
  %12 = invoke noundef zeroext i1 %9(ptr noundef nonnull align 8 dereferenceable(16) %10, ptr noundef nonnull align 8 dereferenceable(16) %11, i32 noundef 3)
          to label %13 unwind label %15

13:                                               ; preds = %7
  br label %14

14:                                               ; preds = %13, %1
  ret void

15:                                               ; preds = %7
  %16 = landingpad { ptr, i32 }
          catch ptr null
  %17 = extractvalue { ptr, i32 } %16, 0
  call void @__clang_call_terminate(ptr %17) #25
  unreachable
}

; Function Attrs: inlinehint mustprogress nounwind uwtable
define linkonce_odr void @_ZN8LightGBM17ArrowChunkedArray8IteratorIfED2Ev(ptr noundef nonnull align 8 dereferenceable(56) %0) unnamed_addr #12 comdat align 2 {
  %2 = alloca ptr, align 8
  store ptr %0, ptr %2, align 8, !tbaa !331
  %3 = load ptr, ptr %2, align 8
  %4 = getelementptr inbounds nuw %"class.LightGBM::ArrowChunkedArray::Iterator.51", ptr %3, i32 0, i32 1
  call void @_ZNSt14_Function_baseD2Ev(ptr noundef nonnull align 8 dereferenceable(32) %4) #3
  ret void
}

; Function Attrs: mustprogress uwtable
define void @_ZN8LightGBM8Metadata8SetLabelERKNS_17ArrowChunkedArrayE(ptr noundef nonnull align 8 dereferenceable(300) %0, ptr noundef nonnull align 8 dereferenceable(57) %1) #8 align 2 personality ptr @__gxx_personality_v0 {
  %3 = alloca ptr, align 8
  %4 = alloca ptr, align 8
  %5 = alloca %"class.LightGBM::ArrowChunkedArray::Iterator.51", align 8
  %6 = alloca %"class.LightGBM::ArrowChunkedArray::Iterator.51", align 8
  %7 = alloca ptr, align 8
  %8 = alloca i32, align 4
  store ptr %0, ptr %3, align 8, !tbaa !4
  store ptr %1, ptr %4, align 8, !tbaa !240
  %9 = load ptr, ptr %3, align 8
  %10 = load ptr, ptr %4, align 8, !tbaa !240
  call void @_ZNK8LightGBM17ArrowChunkedArray5beginIfEENS0_8IteratorIT_EEv(ptr dead_on_unwind writable sret(%"class.LightGBM::ArrowChunkedArray::Iterator.51") align 8 %5, ptr noundef nonnull align 8 dereferenceable(57) %10)
  %11 = load ptr, ptr %4, align 8, !tbaa !240
  invoke void @_ZNK8LightGBM17ArrowChunkedArray3endIfEENS0_8IteratorIT_EEv(ptr dead_on_unwind writable sret(%"class.LightGBM::ArrowChunkedArray::Iterator.51") align 8 %6, ptr noundef nonnull align 8 dereferenceable(57) %11)
          to label %12 unwind label %14

12:                                               ; preds = %2
  invoke void @_ZN8LightGBM8Metadata21SetLabelsFromIteratorINS_17ArrowChunkedArray8IteratorIfEEEEvT_S5_(ptr noundef nonnull align 8 dereferenceable(300) %9, ptr noundef %5, ptr noundef %6)
          to label %13 unwind label %18

13:                                               ; preds = %12
  call void @_ZN8LightGBM17ArrowChunkedArray8IteratorIfED2Ev(ptr noundef nonnull align 8 dereferenceable(56) %6) #3
  call void @_ZN8LightGBM17ArrowChunkedArray8IteratorIfED2Ev(ptr noundef nonnull align 8 dereferenceable(56) %5) #3
  ret void

14:                                               ; preds = %2
  %15 = landingpad { ptr, i32 }
          cleanup
  %16 = extractvalue { ptr, i32 } %15, 0
  store ptr %16, ptr %7, align 8
  %17 = extractvalue { ptr, i32 } %15, 1
  store i32 %17, ptr %8, align 4
  br label %22

18:                                               ; preds = %12
  %19 = landingpad { ptr, i32 }
          cleanup
  %20 = extractvalue { ptr, i32 } %19, 0
  store ptr %20, ptr %7, align 8
  %21 = extractvalue { ptr, i32 } %19, 1
  store i32 %21, ptr %8, align 4
  call void @_ZN8LightGBM17ArrowChunkedArray8IteratorIfED2Ev(ptr noundef nonnull align 8 dereferenceable(56) %6) #3
  br label %22

22:                                               ; preds = %18, %14
  call void @_ZN8LightGBM17ArrowChunkedArray8IteratorIfED2Ev(ptr noundef nonnull align 8 dereferenceable(56) %5) #3
  br label %23

23:                                               ; preds = %22
  %24 = load ptr, ptr %7, align 8
  %25 = load i32, ptr %8, align 4
  %26 = insertvalue { ptr, i32 } poison, ptr %24, 0
  %27 = insertvalue { ptr, i32 } %26, i32 %25, 1
  resume { ptr, i32 } %27
}