; Function Attrs: mustprogress uwtable
define void @_ZN8LightGBM8Metadata8SetLabelERKNS_17ArrowChunkedArrayE(ptr noundef nonnull align 8 dereferenceable(300) %0, ptr noundef nonnull align 8 dereferenceable(57) %1) local_unnamed_addr #8 align 2 personality ptr @__gxx_personality_v0 {
  %3 = alloca %"class.LightGBM::ArrowChunkedArray::Iterator.51", align 8
  %4 = alloca %"class.LightGBM::ArrowChunkedArray::Iterator.51", align 8
  call void @_ZNK8LightGBM17ArrowChunkedArray5beginIfEENS0_8IteratorIT_EEv(ptr dead_on_unwind nonnull writable sret(%"class.LightGBM::ArrowChunkedArray::Iterator.51") align 8 %3, ptr noundef nonnull align 8 dereferenceable(57) %1)
  invoke void @_ZNK8LightGBM17ArrowChunkedArray3endIfEENS0_8IteratorIT_EEv(ptr dead_on_unwind nonnull writable sret(%"class.LightGBM::ArrowChunkedArray::Iterator.51") align 8 %4, ptr noundef nonnull align 8 dereferenceable(57) %1)
          to label %5 unwind label %23

5:                                                ; preds = %2
  invoke void @_ZN8LightGBM8Metadata21SetLabelsFromIteratorINS_17ArrowChunkedArray8IteratorIfEEEEvT_S5_(ptr noundef nonnull align 8 dereferenceable(300) %0, ptr noundef nonnull %3, ptr noundef nonnull %4)
          to label %6 unwind label %25

6:                                                ; preds = %5
  %7 = getelementptr inbounds nuw i8, ptr %4, i64 24
  %8 = load ptr, ptr %7, align 8, !tbaa !55
  %.not.i.i = icmp eq ptr %8, null
  br i1 %.not.i.i, label %_ZN8LightGBM17ArrowChunkedArray8IteratorIfED2Ev.exit, label %9

9:                                                ; preds = %6
  %10 = getelementptr inbounds nuw i8, ptr %4, i64 8
  %11 = invoke noundef zeroext i1 %8(ptr noundef nonnull align 8 dereferenceable(32) %10, ptr noundef nonnull align 8 dereferenceable(32) %10, i32 noundef 3)
          to label %_ZN8LightGBM17ArrowChunkedArray8IteratorIfED2Ev.exit unwind label %12

12:                                               ; preds = %9
  %13 = landingpad { ptr, i32 }
          catch ptr null
  %14 = extractvalue { ptr, i32 } %13, 0
  call void @__clang_call_terminate(ptr %14) #35
  unreachable

_ZN8LightGBM17ArrowChunkedArray8IteratorIfED2Ev.exit: ; preds = %6, %9
  %15 = getelementptr inbounds nuw i8, ptr %3, i64 24
  %16 = load ptr, ptr %15, align 8, !tbaa !55
  %.not.i.i6 = icmp eq ptr %16, null
  br i1 %.not.i.i6, label %_ZN8LightGBM17ArrowChunkedArray8IteratorIfED2Ev.exit7, label %17

17:                                               ; preds = %_ZN8LightGBM17ArrowChunkedArray8IteratorIfED2Ev.exit
  %18 = getelementptr inbounds nuw i8, ptr %3, i64 8
  %19 = invoke noundef zeroext i1 %16(ptr noundef nonnull align 8 dereferenceable(32) %18, ptr noundef nonnull align 8 dereferenceable(32) %18, i32 noundef 3)
          to label %_ZN8LightGBM17ArrowChunkedArray8IteratorIfED2Ev.exit7 unwind label %20

20:                                               ; preds = %17
  %21 = landingpad { ptr, i32 }
          catch ptr null
  %22 = extractvalue { ptr, i32 } %21, 0
  call void @__clang_call_terminate(ptr %22) #35
  unreachable

_ZN8LightGBM17ArrowChunkedArray8IteratorIfED2Ev.exit7: ; preds = %_ZN8LightGBM17ArrowChunkedArray8IteratorIfED2Ev.exit, %17
  ret void

23:                                               ; preds = %2
  %24 = landingpad { ptr, i32 }
          cleanup
  br label %_ZN8LightGBM17ArrowChunkedArray8IteratorIfED2Ev.exit9

25:                                               ; preds = %5
  %26 = landingpad { ptr, i32 }
          cleanup
  %27 = getelementptr inbounds nuw i8, ptr %4, i64 24
  %28 = load ptr, ptr %27, align 8, !tbaa !55
  %.not.i.i8 = icmp eq ptr %28, null
  br i1 %.not.i.i8, label %_ZN8LightGBM17ArrowChunkedArray8IteratorIfED2Ev.exit9, label %29

29:                                               ; preds = %25
  %30 = getelementptr inbounds nuw i8, ptr %4, i64 8
  %31 = invoke noundef zeroext i1 %28(ptr noundef nonnull align 8 dereferenceable(32) %30, ptr noundef nonnull align 8 dereferenceable(32) %30, i32 noundef 3)
          to label %_ZN8LightGBM17ArrowChunkedArray8IteratorIfED2Ev.exit9 unwind label %32

32:                                               ; preds = %29
  %33 = landingpad { ptr, i32 }
          catch ptr null
  %34 = extractvalue { ptr, i32 } %33, 0
  call void @__clang_call_terminate(ptr %34) #35
  unreachable

_ZN8LightGBM17ArrowChunkedArray8IteratorIfED2Ev.exit9: ; preds = %29, %25, %23
  %.pn = phi { ptr, i32 } [ %24, %23 ], [ %26, %25 ], [ %26, %29 ]
  %35 = getelementptr inbounds nuw i8, ptr %3, i64 24
  %36 = load ptr, ptr %35, align 8, !tbaa !55
  %.not.i.i10 = icmp eq ptr %36, null
  br i1 %.not.i.i10, label %_ZN8LightGBM17ArrowChunkedArray8IteratorIfED2Ev.exit11, label %37

37:                                               ; preds = %_ZN8LightGBM17ArrowChunkedArray8IteratorIfED2Ev.exit9
  %38 = getelementptr inbounds nuw i8, ptr %3, i64 8
  %39 = invoke noundef zeroext i1 %36(ptr noundef nonnull align 8 dereferenceable(32) %38, ptr noundef nonnull align 8 dereferenceable(32) %38, i32 noundef 3)
          to label %_ZN8LightGBM17ArrowChunkedArray8IteratorIfED2Ev.exit11 unwind label %40

40:                                               ; preds = %37
  %41 = landingpad { ptr, i32 }
          catch ptr null
  %42 = extractvalue { ptr, i32 } %41, 0
  call void @__clang_call_terminate(ptr %42) #35
  unreachable

_ZN8LightGBM17ArrowChunkedArray8IteratorIfED2Ev.exit11: ; preds = %_ZN8LightGBM17ArrowChunkedArray8IteratorIfED2Ev.exit9, %37
  resume { ptr, i32 } %.pn
}